; Function Attrs: mustprogress uwtable
define internal void @_ZN12_GLOBAL__N_117TestAutotbBackend7executeERPSoNSt7__cxx1112basic_stringIcSt11char_traitsIcESaIcEEESt6vectorIS8_SaIS8_EEPN5Yosys5RTLIL6DesignE(ptr noundef nonnull align 8 dereferenceable(136) %0, ptr noundef nonnull align 8 dereferenceable(8) %1, ptr noundef %2, ptr noundef %3, ptr noundef %4) unnamed_addr #4 align 2 personality ptr @__gxx_personality_v0 {
  %6 = alloca %"class.std::vector", align 8
  tail call void (ptr, ptr, ...) @_ZN5Yosys10log_headerEPNS_5RTLIL6DesignEPKcz(ptr noundef %4, ptr noundef nonnull @.str.24)
  %7 = getelementptr inbounds i8, ptr %3, i64 8
  %8 = load ptr, ptr %7, align 8
  %9 = load ptr, ptr %3, align 8
  %10 = ptrtoint ptr %8 to i64
  %11 = ptrtoint ptr %9 to i64
  %12 = sub i64 %10, %11
  %13 = lshr exact i64 %12, 5
  %14 = trunc i64 %13 to i32
  %15 = icmp sgt i32 %14, 1
  br i1 %15, label %.lr.ph, label %._crit_edge

.lr.ph:                                           ; preds = %5, %54
  %16 = phi ptr [ %57, %54 ], [ %9, %5 ]
  %.025 = phi i32 [ %.1, %54 ], [ 1000, %5 ]
  %.01724 = phi i32 [ %.118, %54 ], [ 0, %5 ]
  %.01923 = phi i32 [ %55, %54 ], [ 1, %5 ]
  %17 = sext i32 %.01923 to i64
  %18 = getelementptr inbounds %"class.std::__cxx11::basic_string", ptr %16, i64 %17
  %19 = tail call noundef i32 @_ZNKSt7__cxx1112basic_stringIcSt11char_traitsIcESaIcEE7compareEPKc(ptr noundef nonnull align 8 dereferenceable(32) %18, ptr noundef nonnull @.str.25) #18
  %20 = icmp eq i32 %19, 0
  %.pre = load ptr, ptr %3, align 8
  br i1 %20, label %21, label %35

21:                                               ; preds = %.lr.ph
  %22 = add nsw i32 %.01923, 1
  %23 = load ptr, ptr %7, align 8
  %24 = ptrtoint ptr %23 to i64
  %25 = ptrtoint ptr %.pre to i64
  %26 = sub i64 %24, %25
  %27 = lshr exact i64 %26, 5
  %28 = trunc i64 %27 to i32
  %29 = icmp slt i32 %22, %28
  br i1 %29, label %30, label %35

30:                                               ; preds = %21
  %31 = sext i32 %22 to i64
  %32 = getelementptr inbounds %"class.std::__cxx11::basic_string", ptr %.pre, i64 %31
  %33 = tail call noundef ptr @_ZNKSt7__cxx1112basic_stringIcSt11char_traitsIcESaIcEE5c_strEv(ptr noundef nonnull align 8 dereferenceable(32) %32) #18
  %34 = tail call i32 @atoi(ptr nocapture noundef %33) #20
  br label %54

35:                                               ; preds = %21, %.lr.ph
  %36 = getelementptr inbounds %"class.std::__cxx11::basic_string", ptr %.pre, i64 %17
  %37 = tail call noundef i32 @_ZNKSt7__cxx1112basic_stringIcSt11char_traitsIcESaIcEE7compareEPKc(ptr noundef nonnull align 8 dereferenceable(32) %36, ptr noundef nonnull @.str.26) #18
  %38 = icmp eq i32 %37, 0
  br i1 %38, label %39, label %._crit_edge.loopexit

39:                                               ; preds = %35
  %40 = add nsw i32 %.01923, 1
  %41 = load ptr, ptr %7, align 8
  %42 = load ptr, ptr %3, align 8
  %43 = ptrtoint ptr %41 to i64
  %44 = ptrtoint ptr %42 to i64
  %45 = sub i64 %43, %44
  %46 = lshr exact i64 %45, 5
  %47 = trunc i64 %46 to i32
  %48 = icmp slt i32 %40, %47
  br i1 %48, label %49, label %._crit_edge.loopexit

49:                                               ; preds = %39
  %50 = sext i32 %40 to i64
  %51 = getelementptr inbounds %"class.std::__cxx11::basic_string", ptr %42, i64 %50
  %52 = tail call noundef ptr @_ZNKSt7__cxx1112basic_stringIcSt11char_traitsIcESaIcEE5c_strEv(ptr noundef nonnull align 8 dereferenceable(32) %51) #18
  %53 = tail call i32 @atoi(ptr nocapture noundef %52) #20
  br label %54

54:                                               ; preds = %49, %30
  %.120 = phi i32 [ %22, %30 ], [ %40, %49 ]
  %.118 = phi i32 [ %.01724, %30 ], [ %53, %49 ]
  %.1 = phi i32 [ %34, %30 ], [ %.025, %49 ]
  %55 = add nsw i32 %.120, 1
  %56 = load ptr, ptr %7, align 8
  %57 = load ptr, ptr %3, align 8
  %58 = ptrtoint ptr %56 to i64
  %59 = ptrtoint ptr %57 to i64
  %60 = sub i64 %58, %59
  %61 = lshr exact i64 %60, 5
  %62 = trunc i64 %61 to i32
  %63 = icmp slt i32 %55, %62
  br i1 %63, label %.lr.ph, label %._crit_edge.loopexit, !llvm.loop !6

._crit_edge.loopexit:                             ; preds = %35, %39, %54
  %.019.lcssa.ph = phi i32 [ %55, %54 ], [ %.01923, %39 ], [ %.01923, %35 ]
  %.017.lcssa.ph = phi i32 [ %.118, %54 ], [ %.01724, %39 ], [ %.01724, %35 ]
  %.0.lcssa.ph = phi i32 [ %.1, %54 ], [ %.025, %39 ], [ %.025, %35 ]
  %64 = sext i32 %.019.lcssa.ph to i64
  br label %._crit_edge

._crit_edge:                                      ; preds = %._crit_edge.loopexit, %5
  %.019.lcssa = phi i64 [ 1, %5 ], [ %64, %._crit_edge.loopexit ]
  %.017.lcssa = phi i32 [ 0, %5 ], [ %.017.lcssa.ph, %._crit_edge.loopexit ]
  %.0.lcssa = phi i32 [ 1000, %5 ], [ %.0.lcssa.ph, %._crit_edge.loopexit ]
  call void @_ZNSt6vectorINSt7__cxx1112basic_stringIcSt11char_traitsIcESaIcEEESaIS5_EEC2ERKS7_(ptr noundef nonnull align 8 dereferenceable(24) %6, ptr noundef nonnull align 8 dereferenceable(24) %3)
  invoke void @_ZN5Yosys7Backend10extra_argsERPSoRNSt7__cxx1112basic_stringIcSt11char_traitsIcESaIcEEESt6vectorIS8_SaIS8_EEmb(ptr noundef nonnull align 8 dereferenceable(136) %0, ptr noundef nonnull align 8 dereferenceable(8) %1, ptr noundef nonnull align 8 dereferenceable(32) %2, ptr noundef nonnull %6, i64 noundef %.019.lcssa, i1 noundef zeroext false)
          to label %65 unwind label %73

65:                                               ; preds = %._crit_edge
  %66 = load ptr, ptr %6, align 8
  %67 = getelementptr inbounds i8, ptr %6, i64 8
  %68 = load ptr, ptr %67, align 8
  %.not4.i.i.i.i = icmp eq ptr %66, %68
  br i1 %.not4.i.i.i.i, label %_ZSt8_DestroyIPNSt7__cxx1112basic_stringIcSt11char_traitsIcESaIcEEES5_EvT_S7_RSaIT0_E.exit.i, label %.lr.ph.i.i.i.i

.lr.ph.i.i.i.i:                                   ; preds = %65, %.lr.ph.i.i.i.i
  %.05.i.i.i.i = phi ptr [ %69, %.lr.ph.i.i.i.i ], [ %66, %65 ]
  call void @_ZNSt7__cxx1112basic_stringIcSt11char_traitsIcESaIcEED1Ev(ptr noundef nonnull align 8 dereferenceable(32) %.05.i.i.i.i) #18
  %69 = getelementptr inbounds i8, ptr %.05.i.i.i.i, i64 32
  %.not.i.i.i.i = icmp eq ptr %69, %68
  br i1 %.not.i.i.i.i, label %_ZSt8_DestroyIPNSt7__cxx1112basic_stringIcSt11char_traitsIcESaIcEEES5_EvT_S7_RSaIT0_E.exitthread-pre-split.i, label %.lr.ph.i.i.i.i, !llvm.loop !8

_ZSt8_DestroyIPNSt7__cxx1112basic_stringIcSt11char_traitsIcESaIcEEES5_EvT_S7_RSaIT0_E.exitthread-pre-split.i: ; preds = %.lr.ph.i.i.i.i
  %.pr.i = load ptr, ptr %6, align 8
  br label %_ZSt8_DestroyIPNSt7__cxx1112basic_stringIcSt11char_traitsIcESaIcEEES5_EvT_S7_RSaIT0_E.exit.i

_ZSt8_DestroyIPNSt7__cxx1112basic_stringIcSt11char_traitsIcESaIcEEES5_EvT_S7_RSaIT0_E.exit.i: ; preds = %_ZSt8_DestroyIPNSt7__cxx1112basic_stringIcSt11char_traitsIcESaIcEEES5_EvT_S7_RSaIT0_E.exitthread-pre-split.i, %65
  %70 = phi ptr [ %.pr.i, %_ZSt8_DestroyIPNSt7__cxx1112basic_stringIcSt11char_traitsIcESaIcEEES5_EvT_S7_RSaIT0_E.exitthread-pre-split.i ], [ %66, %65 ]
  %.not.i.i.i = icmp eq ptr %70, null
  br i1 %.not.i.i.i, label %_ZNSt6vectorINSt7__cxx1112basic_stringIcSt11char_traitsIcESaIcEEESaIS5_EED2Ev.exit, label %71

71:                                               ; preds = %_ZSt8_DestroyIPNSt7__cxx1112basic_stringIcSt11char_traitsIcESaIcEEES5_EvT_S7_RSaIT0_E.exit.i
  call void @_ZdlPv(ptr noundef nonnull %70) #19
  br label %_ZNSt6vectorINSt7__cxx1112basic_stringIcSt11char_traitsIcESaIcEEESaIS5_EED2Ev.exit

_ZNSt6vectorINSt7__cxx1112basic_stringIcSt11char_traitsIcESaIcEEESaIS5_EED2Ev.exit: ; preds = %_ZSt8_DestroyIPNSt7__cxx1112basic_stringIcSt11char_traitsIcESaIcEEES5_EvT_S7_RSaIT0_E.exit.i, %71
  %72 = load ptr, ptr %1, align 8
  call fastcc void @_ZN12_GLOBAL__N_18autotestERSoPN5Yosys5RTLIL6DesignEii(ptr noundef nonnull align 8 dereferenceable(8) %72, ptr noundef %4, i32 noundef %.0.lcssa, i32 noundef %.017.lcssa)
  ret void

73:                                               ; preds = %._crit_edge
  %74 = landingpad { ptr, i32 }
          cleanup
  call void @_ZNSt6vectorINSt7__cxx1112basic_stringIcSt11char_traitsIcESaIcEEESaIS5_EED2Ev(ptr noundef nonnull align 8 dereferenceable(24) %6) #18
  resume { ptr, i32 } %74
}